; Function Attrs: nounwind uwtable
define zeroext range(i8 0, 2) i8 @l_Lean_Omega_beqConstraint____x40_Init_Omega_Constraint___hyg_73_(ptr noundef readonly captures(none) %0, ptr noundef readonly captures(none) %1) local_unnamed_addr #1 {
  %3 = getelementptr inbounds nuw i8, ptr %0, i64 8
  %4 = load ptr, ptr %3, align 8, !tbaa !11
  %5 = getelementptr inbounds nuw i8, ptr %0, i64 16
  %6 = load ptr, ptr %5, align 8, !tbaa !11
  %7 = getelementptr inbounds nuw i8, ptr %1, i64 8
  %8 = load ptr, ptr %7, align 8, !tbaa !11
  %9 = getelementptr inbounds nuw i8, ptr %1, i64 16
  %10 = load ptr, ptr %9, align 8, !tbaa !11
  %11 = ptrtoint ptr %4 to i64
  %12 = and i64 %11, 1
  %.not.i.i = icmp eq i64 %12, 0
  br i1 %.not.i.i, label %16, label %13

13:                                               ; preds = %2
  %14 = lshr i64 %11, 1
  %15 = trunc i64 %14 to i32
  br label %lean_obj_tag.exit.i

16:                                               ; preds = %2
  %17 = getelementptr i8, ptr %4, i64 4
  %.val.i.i = load i32, ptr %17, align 4
  %18 = lshr i32 %.val.i.i, 24
  br label %lean_obj_tag.exit.i

lean_obj_tag.exit.i:                              ; preds = %16, %13
  %.0.i.i = phi i32 [ %15, %13 ], [ %18, %16 ]
  %19 = icmp eq i32 %.0.i.i, 0
  %20 = ptrtoint ptr %8 to i64
  %21 = and i64 %20, 1
  %.not.i11.i = icmp eq i64 %21, 0
  br i1 %19, label %22, label %30

22:                                               ; preds = %lean_obj_tag.exit.i
  br i1 %.not.i11.i, label %26, label %23

23:                                               ; preds = %22
  %24 = lshr i64 %20, 1
  %25 = trunc i64 %24 to i32
  br label %lean_obj_tag.exit14.i

26:                                               ; preds = %22
  %27 = getelementptr i8, ptr %8, i64 4
  %.val.i13.i = load i32, ptr %27, align 4
  %28 = lshr i32 %.val.i13.i, 24
  br label %lean_obj_tag.exit14.i

lean_obj_tag.exit14.i:                            ; preds = %26, %23
  %.0.i12.i = phi i32 [ %25, %23 ], [ %28, %26 ]
  %29 = icmp eq i32 %.0.i12.i, 0
  br i1 %29, label %50, label %l_Option_beqOption____x40_Init_Data_Option_Basic___hyg_160____at_Lean_Omega_beqConstraint____x40_Init_Omega_Constraint___hyg_73____spec__1.exit.thread

30:                                               ; preds = %lean_obj_tag.exit.i
  br i1 %.not.i11.i, label %34, label %31

31:                                               ; preds = %30
  %32 = lshr i64 %20, 1
  %33 = trunc i64 %32 to i32
  br label %lean_obj_tag.exit18.i

34:                                               ; preds = %30
  %35 = getelementptr i8, ptr %8, i64 4
  %.val.i17.i = load i32, ptr %35, align 4
  %36 = lshr i32 %.val.i17.i, 24
  br label %lean_obj_tag.exit18.i

lean_obj_tag.exit18.i:                            ; preds = %34, %31
  %.0.i16.i = phi i32 [ %33, %31 ], [ %36, %34 ]
  %37 = icmp eq i32 %.0.i16.i, 0
  br i1 %37, label %l_Option_beqOption____x40_Init_Data_Option_Basic___hyg_160____at_Lean_Omega_beqConstraint____x40_Init_Omega_Constraint___hyg_73____spec__1.exit.thread, label %38

38:                                               ; preds = %lean_obj_tag.exit18.i
  %39 = getelementptr inbounds nuw i8, ptr %4, i64 8
  %40 = load ptr, ptr %39, align 8, !tbaa !11
  %41 = getelementptr inbounds nuw i8, ptr %8, i64 8
  %42 = load ptr, ptr %41, align 8, !tbaa !11
  %43 = ptrtoint ptr %40 to i64
  %44 = ptrtoint ptr %42 to i64
  %45 = and i64 %43, 1
  %46 = and i64 %45, %44
  %or.cond.not.i.i.i = icmp eq i64 %46, 0
  br i1 %or.cond.not.i.i.i, label %l_Option_beqOption____x40_Init_Data_Option_Basic___hyg_160____at_Lean_Omega_beqConstraint____x40_Init_Omega_Constraint___hyg_73____spec__1.exit, label %47, !prof !13

47:                                               ; preds = %38
  %48 = icmp eq ptr %40, %42
  br i1 %48, label %50, label %l_Option_beqOption____x40_Init_Data_Option_Basic___hyg_160____at_Lean_Omega_beqConstraint____x40_Init_Omega_Constraint___hyg_73____spec__1.exit.thread

l_Option_beqOption____x40_Init_Data_Option_Basic___hyg_160____at_Lean_Omega_beqConstraint____x40_Init_Omega_Constraint___hyg_73____spec__1.exit: ; preds = %38
  %49 = tail call zeroext i1 @lean_int_big_eq(ptr noundef %40, ptr noundef %42) #4
  br i1 %49, label %50, label %l_Option_beqOption____x40_Init_Data_Option_Basic___hyg_160____at_Lean_Omega_beqConstraint____x40_Init_Omega_Constraint___hyg_73____spec__1.exit.thread

50:                                               ; preds = %47, %lean_obj_tag.exit14.i, %l_Option_beqOption____x40_Init_Data_Option_Basic___hyg_160____at_Lean_Omega_beqConstraint____x40_Init_Omega_Constraint___hyg_73____spec__1.exit
  %51 = ptrtoint ptr %6 to i64
  %52 = and i64 %51, 1
  %.not.i.i11 = icmp eq i64 %52, 0
  br i1 %.not.i.i11, label %56, label %53

53:                                               ; preds = %50
  %54 = lshr i64 %51, 1
  %55 = trunc i64 %54 to i32
  br label %lean_obj_tag.exit.i12

56:                                               ; preds = %50
  %57 = getelementptr i8, ptr %6, i64 4
  %.val.i.i25 = load i32, ptr %57, align 4
  %58 = lshr i32 %.val.i.i25, 24
  br label %lean_obj_tag.exit.i12

lean_obj_tag.exit.i12:                            ; preds = %56, %53
  %.0.i.i13 = phi i32 [ %55, %53 ], [ %58, %56 ]
  %59 = icmp eq i32 %.0.i.i13, 0
  %60 = ptrtoint ptr %10 to i64
  %61 = and i64 %60, 1
  %.not.i11.i14 = icmp eq i64 %61, 0
  br i1 %59, label %62, label %70

62:                                               ; preds = %lean_obj_tag.exit.i12
  br i1 %.not.i11.i14, label %66, label %63

63:                                               ; preds = %62
  %64 = lshr i64 %60, 1
  %65 = trunc i64 %64 to i32
  br label %lean_obj_tag.exit14.i22

66:                                               ; preds = %62
  %67 = getelementptr i8, ptr %10, i64 4
  %.val.i13.i24 = load i32, ptr %67, align 4
  %68 = lshr i32 %.val.i13.i24, 24
  br label %lean_obj_tag.exit14.i22

lean_obj_tag.exit14.i22:                          ; preds = %66, %63
  %.0.i12.i23 = phi i32 [ %65, %63 ], [ %68, %66 ]
  %69 = icmp eq i32 %.0.i12.i23, 0
  br label %l_Option_beqOption____x40_Init_Data_Option_Basic___hyg_160____at_Lean_Omega_beqConstraint____x40_Init_Omega_Constraint___hyg_73____spec__1.exit26

70:                                               ; preds = %lean_obj_tag.exit.i12
  br i1 %.not.i11.i14, label %74, label %71

71:                                               ; preds = %70
  %72 = lshr i64 %60, 1
  %73 = trunc i64 %72 to i32
  br label %lean_obj_tag.exit18.i15

74:                                               ; preds = %70
  %75 = getelementptr i8, ptr %10, i64 4
  %.val.i17.i21 = load i32, ptr %75, align 4
  %76 = lshr i32 %.val.i17.i21, 24
  br label %lean_obj_tag.exit18.i15

lean_obj_tag.exit18.i15:                          ; preds = %74, %71
  %.0.i16.i16 = phi i32 [ %73, %71 ], [ %76, %74 ]
  %77 = icmp eq i32 %.0.i16.i16, 0
  br i1 %77, label %l_Option_beqOption____x40_Init_Data_Option_Basic___hyg_160____at_Lean_Omega_beqConstraint____x40_Init_Omega_Constraint___hyg_73____spec__1.exit26, label %78

78:                                               ; preds = %lean_obj_tag.exit18.i15
  %79 = getelementptr inbounds nuw i8, ptr %6, i64 8
  %80 = load ptr, ptr %79, align 8, !tbaa !11
  %81 = getelementptr inbounds nuw i8, ptr %10, i64 8
  %82 = load ptr, ptr %81, align 8, !tbaa !11
  %83 = ptrtoint ptr %80 to i64
  %84 = ptrtoint ptr %82 to i64
  %85 = and i64 %83, 1
  %86 = and i64 %85, %84
  %or.cond.not.i.i.i17 = icmp eq i64 %86, 0
  br i1 %or.cond.not.i.i.i17, label %.critedge.i.i.i20, label %87, !prof !13

87:                                               ; preds = %78
  %88 = icmp eq ptr %80, %82
  br label %l_Option_beqOption____x40_Init_Data_Option_Basic___hyg_160____at_Lean_Omega_beqConstraint____x40_Init_Omega_Constraint___hyg_73____spec__1.exit26

.critedge.i.i.i20:                                ; preds = %78
  %89 = tail call zeroext i1 @lean_int_big_eq(ptr noundef %80, ptr noundef %82) #4
  br label %l_Option_beqOption____x40_Init_Data_Option_Basic___hyg_160____at_Lean_Omega_beqConstraint____x40_Init_Omega_Constraint___hyg_73____spec__1.exit26

l_Option_beqOption____x40_Init_Data_Option_Basic___hyg_160____at_Lean_Omega_beqConstraint____x40_Init_Omega_Constraint___hyg_73____spec__1.exit26: ; preds = %lean_obj_tag.exit14.i22, %lean_obj_tag.exit18.i15, %87, %.critedge.i.i.i20
  %.0.shrunk.i18 = phi i1 [ %69, %lean_obj_tag.exit14.i22 ], [ false, %lean_obj_tag.exit18.i15 ], [ %88, %87 ], [ %89, %.critedge.i.i.i20 ]
  %.0.i19 = zext i1 %.0.shrunk.i18 to i8
  br label %l_Option_beqOption____x40_Init_Data_Option_Basic___hyg_160____at_Lean_Omega_beqConstraint____x40_Init_Omega_Constraint___hyg_73____spec__1.exit.thread

l_Option_beqOption____x40_Init_Data_Option_Basic___hyg_160____at_Lean_Omega_beqConstraint____x40_Init_Omega_Constraint___hyg_73____spec__1.exit.thread: ; preds = %47, %lean_obj_tag.exit14.i, %lean_obj_tag.exit18.i, %l_Option_beqOption____x40_Init_Data_Option_Basic___hyg_160____at_Lean_Omega_beqConstraint____x40_Init_Omega_Constraint___hyg_73____spec__1.exit, %l_Option_beqOption____x40_Init_Data_Option_Basic___hyg_160____at_Lean_Omega_beqConstraint____x40_Init_Omega_Constraint___hyg_73____spec__1.exit26
  %.0 = phi i8 [ %.0.i19, %l_Option_beqOption____x40_Init_Data_Option_Basic___hyg_160____at_Lean_Omega_beqConstraint____x40_Init_Omega_Constraint___hyg_73____spec__1.exit26 ], [ 0, %l_Option_beqOption____x40_Init_Data_Option_Basic___hyg_160____at_Lean_Omega_beqConstraint____x40_Init_Omega_Constraint___hyg_73____spec__1.exit ], [ 0, %lean_obj_tag.exit18.i ], [ 0, %lean_obj_tag.exit14.i ], [ 0, %47 ]
  ret i8 %.0
}